target datalayout = "e-m:e-p270:32:32-p271:32:32-p272:64:64-i64:64-i128:128-f80:128-n8:16:32:64-S128"
target triple = "x86_64-pc-linux-gnu"

%struct.H5VL_loc_params_t = type { i32, i32, %union.anon }
%union.anon = type { %struct.H5VL_loc_by_idx }
%struct.H5VL_loc_by_idx = type { ptr, i32, i32, i64, i64 }
%struct.H5VL_optional_args_t = type { i32, ptr }
%union.H5VL_native_object_optional_args_t = type { %struct.H5VL_native_object_get_comment_t }
%struct.H5VL_native_object_get_comment_t = type { i64, ptr, ptr }
%struct.H5VL_native_object_get_native_info_t = type { i32, ptr }

@H5_libinit_g = external global i8, align 1
@H5_libterm_g = external global i8, align 1
@.str = private unnamed_addr constant [97 x i8] c"generated/home/dtcxzyw/WorkSpace/Projects/compilers/llvm-opt-benchmark/bench/hdf5/hdf5/src/H5O.c\00", align 1
@H5E_FUNC_g = external global i64, align 8
@H5E_CANTINIT_g = external global i64, align 8
@.str.1 = private unnamed_addr constant [30 x i8] c"library initialization failed\00", align 1
@H5E_CANTSET_g = external global i64, align 8
@.str.2 = private unnamed_addr constant [22 x i8] c"can't set API context\00", align 1
@H5E_OHDR_g = external global i64, align 8
@H5E_ARGS_g = external global i64, align 8
@H5E_BADVALUE_g = external global i64, align 8
@H5E_BADTYPE_g = external global i64, align 8
@.str.21 = private unnamed_addr constant [28 x i8] c"invalid location identifier\00", align 1
@H5P_LST_DATASET_XFER_ID_g = external global i64, align 8
@H5E_CANTGET_g = external global i64, align 8
@.str.52 = private unnamed_addr constant [31 x i8] c"oinfo parameter cannot be NULL\00", align 1
@.str.53 = private unnamed_addr constant [15 x i8] c"invalid fields\00", align 1
@__func__.H5Oget_native_info = private unnamed_addr constant [19 x i8] c"H5Oget_native_info\00", align 1
@.str.63 = private unnamed_addr constant [45 x i8] c"can't get native file format info for object\00", align 1

; Function Attrs: nounwind uwtable
define i32 @H5Oget_native_info(i64 noundef %0, ptr noundef %1, i32 noundef %2) #0 {
  %4 = alloca i64, align 8
  %5 = alloca ptr, align 8
  %6 = alloca i32, align 4
  %7 = alloca ptr, align 8
  %8 = alloca %struct.H5VL_optional_args_t, align 8
  %9 = alloca %union.H5VL_native_object_optional_args_t, align 8
  %10 = alloca %struct.H5VL_loc_params_t, align 8
  %11 = alloca i32, align 4
  %12 = alloca i8, align 1
  %13 = alloca i8, align 1
  store i64 %0, ptr %4, align 8
  store ptr %1, ptr %5, align 8
  store i32 %2, ptr %6, align 4
  store i32 0, ptr %11, align 4
  store i8 0, ptr %12, align 1
  store i8 0, ptr %13, align 1
  %14 = load i8, ptr @H5_libinit_g, align 1
  %15 = trunc i8 %14 to i1
  br i1 %15, label %20, label %16

16:                                               ; preds = %3
  %17 = load i8, ptr @H5_libterm_g, align 1
  %18 = trunc i8 %17 to i1
  %19 = xor i1 %18, true
  br label %20

20:                                               ; preds = %16, %3
  %21 = phi i1 [ false, %3 ], [ %19, %16 ]
  %22 = xor i1 %21, true
  %23 = xor i1 %22, true
  %24 = zext i1 %23 to i32
  %25 = sext i32 %24 to i64
  %26 = icmp ne i64 %25, 0
  br i1 %26, label %27, label %51

27:                                               ; preds = %20
  %28 = call i32 @H5_init_library()
  %29 = icmp slt i32 %28, 0
  %30 = xor i1 %29, true
  %31 = xor i1 %30, true
  %32 = zext i1 %31 to i32
  %33 = sext i32 %32 to i64
  %34 = icmp ne i64 %33, 0
  br i1 %34, label %35, label %50

35:                                               ; preds = %27
  br label %36

36:                                               ; preds = %35
  br label %37

37:                                               ; preds = %36
  br label %38

38:                                               ; preds = %37
  %39 = load i64, ptr @H5E_FUNC_g, align 8
  %40 = load i64, ptr @H5E_CANTINIT_g, align 8
  %41 = call i32 (ptr, ptr, i32, i64, i64, ptr, ...) @H5E_printf_stack(ptr noundef @.str, ptr noundef @__func__.H5Oget_native_info, i32 noundef 1287, i64 noundef %39, i64 noundef %40, ptr noundef @.str.1)
  br label %42

42:                                               ; preds = %38
  store i8 1, ptr %13, align 1
  %43 = load i8, ptr %13, align 1
  %44 = trunc i8 %43 to i1
  %45 = zext i1 %44 to i8
  store i8 %45, ptr %13, align 1
  br label %46

46:                                               ; preds = %42
  br label %47

47:                                               ; preds = %46
  store i32 -1, ptr %11, align 4
  br label %163

48:                                               ; No predecessors!
  br label %49

49:                                               ; preds = %48
  br label %50

50:                                               ; preds = %49, %27
  br label %51

51:                                               ; preds = %50, %20
  %52 = call i32 @H5CX_push()
  %53 = icmp slt i32 %52, 0
  %54 = xor i1 %53, true
  %55 = xor i1 %54, true
  %56 = zext i1 %55 to i32
  %57 = sext i32 %56 to i64
  %58 = icmp ne i64 %57, 0
  br i1 %58, label %59, label %74

59:                                               ; preds = %51
  br label %60

60:                                               ; preds = %59
  br label %61

61:                                               ; preds = %60
  br label %62

62:                                               ; preds = %61
  %63 = load i64, ptr @H5E_FUNC_g, align 8
  %64 = load i64, ptr @H5E_CANTSET_g, align 8
  %65 = call i32 (ptr, ptr, i32, i64, i64, ptr, ...) @H5E_printf_stack(ptr noundef @.str, ptr noundef @__func__.H5Oget_native_info, i32 noundef 1287, i64 noundef %63, i64 noundef %64, ptr noundef @.str.2)
  br label %66

66:                                               ; preds = %62
  store i8 1, ptr %13, align 1
  %67 = load i8, ptr %13, align 1
  %68 = trunc i8 %67 to i1
  %69 = zext i1 %68 to i8
  store i8 %69, ptr %13, align 1
  br label %70

70:                                               ; preds = %66
  br label %71

71:                                               ; preds = %70
  store i32 -1, ptr %11, align 4
  br label %163

72:                                               ; No predecessors!
  br label %73

73:                                               ; preds = %72
  br label %75

74:                                               ; preds = %51
  store i8 1, ptr %12, align 1
  br label %75

75:                                               ; preds = %74, %73
  %76 = call i32 @H5E_clear_stack()
  %77 = load ptr, ptr %5, align 8
  %78 = icmp ne ptr %77, null
  br i1 %78, label %94, label %79

79:                                               ; preds = %75
  br label %80

80:                                               ; preds = %79
  br label %81

81:                                               ; preds = %80
  br label %82

82:                                               ; preds = %81
  %83 = load i64, ptr @H5E_ARGS_g, align 8
  %84 = load i64, ptr @H5E_BADVALUE_g, align 8
  %85 = call i32 (ptr, ptr, i32, i64, i64, ptr, ...) @H5E_printf_stack(ptr noundef @.str, ptr noundef @__func__.H5Oget_native_info, i32 noundef 1291, i64 noundef %83, i64 noundef %84, ptr noundef @.str.52)
  br label %86

86:                                               ; preds = %82
  store i8 1, ptr %13, align 1
  %87 = load i8, ptr %13, align 1
  %88 = trunc i8 %87 to i1
  %89 = zext i1 %88 to i8
  store i8 %89, ptr %13, align 1
  br label %90

90:                                               ; preds = %86
  br label %91

91:                                               ; preds = %90
  store i32 -1, ptr %11, align 4
  br label %163

92:                                               ; No predecessors!
  br label %93

93:                                               ; preds = %92
  br label %94

94:                                               ; preds = %93, %75
  %95 = load i32, ptr %6, align 4
  %96 = and i32 %95, -25
  %97 = icmp ne i32 %96, 0
  br i1 %97, label %98, label %113

98:                                               ; preds = %94
  br label %99

99:                                               ; preds = %98
  br label %100

100:                                              ; preds = %99
  br label %101

101:                                              ; preds = %100
  %102 = load i64, ptr @H5E_ARGS_g, align 8
  %103 = load i64, ptr @H5E_BADVALUE_g, align 8
  %104 = call i32 (ptr, ptr, i32, i64, i64, ptr, ...) @H5E_printf_stack(ptr noundef @.str, ptr noundef @__func__.H5Oget_native_info, i32 noundef 1293, i64 noundef %102, i64 noundef %103, ptr noundef @.str.53)
  br label %105

105:                                              ; preds = %101
  store i8 1, ptr %13, align 1
  %106 = load i8, ptr %13, align 1
  %107 = trunc i8 %106 to i1
  %108 = zext i1 %107 to i8
  store i8 %108, ptr %13, align 1
  br label %109

109:                                              ; preds = %105
  br label %110

110:                                              ; preds = %109
  store i32 -1, ptr %11, align 4
  br label %163

111:                                              ; No predecessors!
  br label %112

112:                                              ; preds = %111
  br label %113

113:                                              ; preds = %112, %94
  %114 = getelementptr inbounds %struct.H5VL_loc_params_t, ptr %10, i32 0, i32 1
  store i32 0, ptr %114, align 4
  %115 = load i64, ptr %4, align 8
  %116 = call i32 @H5I_get_type(i64 noundef %115)
  %117 = getelementptr inbounds %struct.H5VL_loc_params_t, ptr %10, i32 0, i32 0
  store i32 %116, ptr %117, align 8
  %118 = load i64, ptr %4, align 8
  %119 = call ptr @H5VL_vol_object(i64 noundef %118)
  store ptr %119, ptr %7, align 8
  %120 = icmp eq ptr null, %119
  br i1 %120, label %121, label %136

121:                                              ; preds = %113
  br label %122

122:                                              ; preds = %121
  br label %123

123:                                              ; preds = %122
  br label %124

124:                                              ; preds = %123
  %125 = load i64, ptr @H5E_ARGS_g, align 8
  %126 = load i64, ptr @H5E_BADTYPE_g, align 8
  %127 = call i32 (ptr, ptr, i32, i64, i64, ptr, ...) @H5E_printf_stack(ptr noundef @.str, ptr noundef @__func__.H5Oget_native_info, i32 noundef 1301, i64 noundef %125, i64 noundef %126, ptr noundef @.str.21)
  br label %128

128:                                              ; preds = %124
  store i8 1, ptr %13, align 1
  %129 = load i8, ptr %13, align 1
  %130 = trunc i8 %129 to i1
  %131 = zext i1 %130 to i8
  store i8 %131, ptr %13, align 1
  br label %132

132:                                              ; preds = %128
  br label %133

133:                                              ; preds = %132
  store i32 -1, ptr %11, align 4
  br label %163

134:                                              ; No predecessors!
  br label %135

135:                                              ; preds = %134
  br label %136

136:                                              ; preds = %135, %113
  %137 = load i32, ptr %6, align 4
  %138 = getelementptr inbounds %struct.H5VL_native_object_get_native_info_t, ptr %9, i32 0, i32 0
  store i32 %137, ptr %138, align 8
  %139 = load ptr, ptr %5, align 8
  %140 = getelementptr inbounds %struct.H5VL_native_object_get_native_info_t, ptr %9, i32 0, i32 1
  store ptr %139, ptr %140, align 8
  %141 = getelementptr inbounds %struct.H5VL_optional_args_t, ptr %8, i32 0, i32 0
  store i32 5, ptr %141, align 8
  %142 = getelementptr inbounds %struct.H5VL_optional_args_t, ptr %8, i32 0, i32 1
  store ptr %9, ptr %142, align 8
  %143 = load ptr, ptr %7, align 8
  %144 = load i64, ptr @H5P_LST_DATASET_XFER_ID_g, align 8
  %145 = call i32 @H5VL_object_optional(ptr noundef %143, ptr noundef %10, ptr noundef %8, i64 noundef %144, ptr noundef null)
  %146 = icmp slt i32 %145, 0
  br i1 %146, label %147, label %162

147:                                              ; preds = %136
  br label %148

148:                                              ; preds = %147
  br label %149

149:                                              ; preds = %148
  br label %150

150:                                              ; preds = %149
  %151 = load i64, ptr @H5E_OHDR_g, align 8
  %152 = load i64, ptr @H5E_CANTGET_g, align 8
  %153 = call i32 (ptr, ptr, i32, i64, i64, ptr, ...) @H5E_printf_stack(ptr noundef @.str, ptr noundef @__func__.H5Oget_native_info, i32 noundef 1312, i64 noundef %151, i64 noundef %152, ptr noundef @.str.63)
  br label %154

154:                                              ; preds = %150
  store i8 1, ptr %13, align 1
  %155 = load i8, ptr %13, align 1
  %156 = trunc i8 %155 to i1
  %157 = zext i1 %156 to i8
  store i8 %157, ptr %13, align 1
  br label %158

158:                                              ; preds = %154
  br label %159

159:                                              ; preds = %158
  store i32 -1, ptr %11, align 4
  br label %163

160:                                              ; No predecessors!
  br label %161

161:                                              ; preds = %160
  br label %162

162:                                              ; preds = %161, %136
  br label %163

163:                                              ; preds = %162, %159, %133, %110, %91, %71, %47
  %164 = load i8, ptr %12, align 1
  %165 = trunc i8 %164 to i1
  %166 = xor i1 %165, true
  %167 = xor i1 %166, true
  %168 = zext i1 %167 to i32
  %169 = sext i32 %168 to i64
  %170 = icmp ne i64 %169, 0
  br i1 %170, label %171, label %173

171:                                              ; preds = %163
  %172 = call i32 @H5CX_pop(i1 noundef zeroext true)
  store i8 0, ptr %12, align 1
  br label %173

173:                                              ; preds = %171, %163
  %174 = load i8, ptr %13, align 1
  %175 = trunc i8 %174 to i1
  %176 = xor i1 %175, true
  %177 = xor i1 %176, true
  %178 = zext i1 %177 to i32
  %179 = sext i32 %178 to i64
  %180 = icmp ne i64 %179, 0
  br i1 %180, label %181, label %183

181:                                              ; preds = %173
  %182 = call i32 @H5E_dump_api_stack()
  br label %183

183:                                              ; preds = %181, %173
  %184 = load i32, ptr %11, align 4
  ret i32 %184
}