; Function Attrs: nounwind uwtable
define range(i32 -1, 1) i32 @H5Oget_native_info(i64 noundef %0, ptr noundef %1, i32 noundef %2) local_unnamed_addr #0 {
  %4 = alloca %struct.H5VL_optional_args_t, align 8
  %5 = alloca %union.H5VL_native_object_optional_args_t, align 8
  %6 = alloca %struct.H5VL_loc_params_t, align 8
  %7 = load i8, ptr @H5_libinit_g, align 1
  %8 = trunc i8 %7 to i1
  %9 = load i8, ptr @H5_libterm_g, align 1
  %10 = trunc i8 %9 to i1
  %11 = select i1 %8, i1 true, i1 %10
  br i1 %11, label %19, label %12

12:                                               ; preds = %3
  %13 = tail call i32 @H5_init_library() #4
  %14 = icmp slt i32 %13, 0
  br i1 %14, label %15, label %19

15:                                               ; preds = %12
  %16 = load i64, ptr @H5E_FUNC_g, align 8
  %17 = load i64, ptr @H5E_CANTINIT_g, align 8
  %18 = tail call i32 (ptr, ptr, i32, i64, i64, ptr, ...) @H5E_printf_stack(ptr noundef nonnull @.str, ptr noundef nonnull @__func__.H5Oget_native_info, i32 noundef 1287, i64 noundef %16, i64 noundef %17, ptr noundef nonnull @.str.1) #4
  br label %.thread28

19:                                               ; preds = %12, %3
  %20 = tail call i32 @H5CX_push() #4
  %21 = icmp slt i32 %20, 0
  br i1 %21, label %22, label %26

22:                                               ; preds = %19
  %23 = load i64, ptr @H5E_FUNC_g, align 8
  %24 = load i64, ptr @H5E_CANTSET_g, align 8
  %25 = tail call i32 (ptr, ptr, i32, i64, i64, ptr, ...) @H5E_printf_stack(ptr noundef nonnull @.str, ptr noundef nonnull @__func__.H5Oget_native_info, i32 noundef 1287, i64 noundef %23, i64 noundef %24, ptr noundef nonnull @.str.2) #4
  br label %.thread28

26:                                               ; preds = %19
  %27 = tail call i32 @H5E_clear_stack() #4
  %.not = icmp eq ptr %1, null
  br i1 %.not, label %28, label %32

28:                                               ; preds = %26
  %29 = load i64, ptr @H5E_ARGS_g, align 8
  %30 = load i64, ptr @H5E_BADVALUE_g, align 8
  %31 = tail call i32 (ptr, ptr, i32, i64, i64, ptr, ...) @H5E_printf_stack(ptr noundef nonnull @.str, ptr noundef nonnull @__func__.H5Oget_native_info, i32 noundef 1291, i64 noundef %29, i64 noundef %30, ptr noundef nonnull @.str.52) #4
  br label %.thread34

32:                                               ; preds = %26
  %33 = and i32 %2, -25
  %.not19 = icmp eq i32 %33, 0
  br i1 %.not19, label %38, label %34

34:                                               ; preds = %32
  %35 = load i64, ptr @H5E_ARGS_g, align 8
  %36 = load i64, ptr @H5E_BADVALUE_g, align 8
  %37 = tail call i32 (ptr, ptr, i32, i64, i64, ptr, ...) @H5E_printf_stack(ptr noundef nonnull @.str, ptr noundef nonnull @__func__.H5Oget_native_info, i32 noundef 1293, i64 noundef %35, i64 noundef %36, ptr noundef nonnull @.str.53) #4
  br label %.thread34

38:                                               ; preds = %32
  %39 = getelementptr inbounds i8, ptr %6, i64 4
  store i32 0, ptr %39, align 4
  %40 = tail call i32 @H5I_get_type(i64 noundef %0) #4
  store i32 %40, ptr %6, align 8
  %41 = tail call ptr @H5VL_vol_object(i64 noundef %0) #4
  %42 = icmp eq ptr %41, null
  br i1 %42, label %43, label %47

43:                                               ; preds = %38
  %44 = load i64, ptr @H5E_ARGS_g, align 8
  %45 = load i64, ptr @H5E_BADTYPE_g, align 8
  %46 = tail call i32 (ptr, ptr, i32, i64, i64, ptr, ...) @H5E_printf_stack(ptr noundef nonnull @.str, ptr noundef nonnull @__func__.H5Oget_native_info, i32 noundef 1301, i64 noundef %44, i64 noundef %45, ptr noundef nonnull @.str.21) #4
  br label %.thread34

47:                                               ; preds = %38
  store i32 %2, ptr %5, align 8
  %48 = getelementptr inbounds i8, ptr %5, i64 8
  store ptr %1, ptr %48, align 8
  store i32 5, ptr %4, align 8
  %49 = getelementptr inbounds i8, ptr %4, i64 8
  store ptr %5, ptr %49, align 8
  %50 = load i64, ptr @H5P_LST_DATASET_XFER_ID_g, align 8
  %51 = call i32 @H5VL_object_optional(ptr noundef nonnull %41, ptr noundef nonnull %6, ptr noundef nonnull %4, i64 noundef %50, ptr noundef null) #4
  %52 = icmp slt i32 %51, 0
  br i1 %52, label %53, label %58

53:                                               ; preds = %47
  %54 = load i64, ptr @H5E_OHDR_g, align 8
  %55 = load i64, ptr @H5E_CANTGET_g, align 8
  %56 = call i32 (ptr, ptr, i32, i64, i64, ptr, ...) @H5E_printf_stack(ptr noundef nonnull @.str, ptr noundef nonnull @__func__.H5Oget_native_info, i32 noundef 1312, i64 noundef %54, i64 noundef %55, ptr noundef nonnull @.str.63) #4
  br label %.thread34

.thread34:                                        ; preds = %28, %53, %43, %34
  %57 = call i32 @H5CX_pop(i1 noundef zeroext true) #4
  br label %.thread28

58:                                               ; preds = %47
  %59 = call i32 @H5CX_pop(i1 noundef zeroext true) #4
  br label %61

.thread28:                                        ; preds = %22, %15, %.thread34
  %60 = call i32 @H5E_dump_api_stack() #4
  br label %61

61:                                               ; preds = %58, %.thread28
  %.0162331 = phi i32 [ -1, %.thread28 ], [ 0, %58 ]
  ret i32 %.0162331
}